; Function Attrs: mustprogress nounwind uwtable
define hidden noundef ptr @_ZNK13XBarrierSetC220create_barrier_stateEP5Arena(ptr nocapture nonnull readnone align 8 %0, ptr noundef %1) unnamed_addr #0 align 2 {
  %3 = tail call noundef ptr @_ZN8ArenaObjnwEmP5Arena(i64 noundef 32, ptr noundef %1) #12
  %4 = icmp eq ptr %3, null
  br i1 %4, label %29, label %5

5:                                                ; preds = %2
  %6 = tail call noundef ptr @_ZN6AnyObjnwEmP5Arena(i64 noundef 24, ptr noundef %1) #12
  %7 = tail call noundef ptr @_ZN27GrowableArrayArenaAllocator8allocateEiiP5Arena(i32 noundef 8, i32 noundef 8, ptr noundef %1) #12
  store i32 0, ptr %6, align 4
  %8 = getelementptr inbounds i8, ptr %6, i64 4
  store i32 8, ptr %8, align 4
  %9 = getelementptr inbounds i8, ptr %6, i64 8
  store ptr %7, ptr %9, align 8
  tail call void @llvm.memset.p0.i64(ptr noundef nonnull align 8 dereferenceable(64) %7, i8 0, i64 64, i1 false)
  %10 = getelementptr inbounds i8, ptr %6, i64 16
  %11 = ptrtoint ptr %1 to i64
  store i64 %11, ptr %10, align 8
  store ptr %6, ptr %3, align 8
  %12 = getelementptr inbounds i8, ptr %3, i64 8
  store ptr %1, ptr %12, align 8
  %13 = getelementptr inbounds i8, ptr %3, i64 16
  store i32 4, ptr %13, align 8
  %14 = getelementptr inbounds i8, ptr %1, i64 40
  %15 = load ptr, ptr %14, align 8
  %16 = getelementptr inbounds i8, ptr %1, i64 32
  %17 = load ptr, ptr %16, align 8
  %18 = ptrtoint ptr %15 to i64
  %19 = ptrtoint ptr %17 to i64
  %20 = sub i64 %18, %19
  %.not.i.i.i.i = icmp ult i64 %20, 32
  br i1 %.not.i.i.i.i, label %23, label %21

21:                                               ; preds = %5
  %22 = getelementptr inbounds i8, ptr %17, i64 32
  store ptr %22, ptr %16, align 8
  br label %_ZN18XBarrierSetC2StateC2EP5Arena.exit

23:                                               ; preds = %5
  %24 = tail call noundef ptr @_ZN5Arena4growEmN17AllocFailStrategy13AllocFailEnumE(ptr noundef nonnull align 8 dereferenceable(48) %1, i64 noundef 32, i32 noundef 0) #12
  br label %_ZN18XBarrierSetC2StateC2EP5Arena.exit

_ZN18XBarrierSetC2StateC2EP5Arena.exit:           ; preds = %21, %23
  %.0.i.i.i.i = phi ptr [ %17, %21 ], [ %24, %23 ]
  %25 = getelementptr inbounds i8, ptr %3, i64 24
  store ptr %.0.i.i.i.i, ptr %25, align 8
  %26 = load i32, ptr %13, align 8
  %27 = zext i32 %26 to i64
  %28 = shl nuw nsw i64 %27, 3
  tail call void @llvm.memset.p0.i64(ptr align 1 %.0.i.i.i.i, i8 0, i64 %28, i1 false)
  br label %29

29:                                               ; preds = %_ZN18XBarrierSetC2StateC2EP5Arena.exit, %2
  ret ptr %3
}